; Function Attrs: mustprogress uwtable
define void @_ZN3gmx23ExpandedEnsembleElement5applyElbb(ptr nocapture noundef nonnull readonly align 8 dereferenceable(144) %0, i64 noundef %1, i1 noundef zeroext %2, i1 noundef zeroext %3) local_unnamed_addr #0 align 2 {
  br i1 %2, label %5, label %22

5:                                                ; preds = %4
  %6 = getelementptr inbounds i8, ptr %0, i64 128
  %7 = load ptr, ptr %6, align 8
  %8 = getelementptr inbounds i8, ptr %0, i64 136
  %9 = load ptr, ptr %8, align 8
  %10 = getelementptr inbounds i8, ptr %0, i64 112
  %11 = load ptr, ptr %10, align 8
  %12 = tail call noundef ptr @_ZNK3gmx10EnergyData8enerdataEv(ptr noundef nonnull align 8 dereferenceable(552) %11)
  %13 = getelementptr inbounds i8, ptr %0, i64 120
  %14 = load ptr, ptr %13, align 8
  %15 = tail call noundef i32 @_ZNK3gmx26FreeEnergyPerturbationData15currentFEPStateEv(ptr noundef nonnull align 8 dereferenceable(64) %14)
  %16 = getelementptr inbounds i8, ptr %0, i64 64
  %17 = load ptr, ptr %16, align 8
  %18 = tail call noundef i32 @_Z33expandedEnsembleUpdateLambdaStateP8_IO_FILEPK10t_inputrecPK14gmx_enerdata_tiP12df_history_tl(ptr noundef %7, ptr noundef %9, ptr noundef %12, i32 noundef %15, ptr noundef %17, i64 noundef %1)
  %19 = getelementptr inbounds i8, ptr %0, i64 24
  %20 = load ptr, ptr %19, align 8
  %21 = add nsw i64 %1, 1
  tail call void @_ZN3gmx15FepStateSetting11setNewStateEil(ptr noundef nonnull align 8 dereferenceable(24) %20, i32 noundef %18, i64 noundef %21)
  br label %22

22:                                               ; preds = %5, %4
  br i1 %3, label %23, label %48

23:                                               ; preds = %22
  %24 = getelementptr inbounds i8, ptr %0, i64 128
  %25 = load ptr, ptr %24, align 8
  %26 = getelementptr inbounds i8, ptr %0, i64 136
  %27 = load ptr, ptr %26, align 8
  %28 = getelementptr inbounds i8, ptr %27, i64 400
  %29 = load ptr, ptr %28, align 8
  %30 = getelementptr inbounds i8, ptr %27, i64 432
  %31 = load ptr, ptr %30, align 8
  %32 = getelementptr inbounds i8, ptr %27, i64 408
  %33 = load i8, ptr %32, align 8
  %34 = trunc i8 %33 to i1
  br i1 %34, label %35, label %38

35:                                               ; preds = %23
  %36 = getelementptr inbounds i8, ptr %27, i64 416
  %37 = load ptr, ptr %36, align 8
  br label %38

38:                                               ; preds = %23, %35
  %39 = phi ptr [ %37, %35 ], [ null, %23 ]
  %40 = getelementptr inbounds i8, ptr %0, i64 64
  %41 = load ptr, ptr %40, align 8
  %42 = getelementptr inbounds i8, ptr %0, i64 120
  %43 = load ptr, ptr %42, align 8
  %44 = tail call noundef i32 @_ZNK3gmx26FreeEnergyPerturbationData15currentFEPStateEv(ptr noundef nonnull align 8 dereferenceable(64) %43)
  %45 = load ptr, ptr %26, align 8
  %46 = getelementptr inbounds i8, ptr %45, i64 52
  %47 = load i32, ptr %46, align 4
  tail call void @_Z25PrintFreeEnergyInfoToFileP8_IO_FILEPK8t_lambdaPK10t_expandedPK9t_simtempPK12df_history_tiil(ptr noundef %25, ptr noundef %29, ptr noundef %31, ptr noundef %39, ptr noundef %41, i32 noundef %44, i32 noundef %47, i64 noundef %1)
  br label %48

48:                                               ; preds = %38, %22
  ret void
}